target datalayout = "e-m:e-p270:32:32-p271:32:32-p272:64:64-i64:64-i128:128-f80:128-n8:16:32:64-S128"
target triple = "x86_64-pc-linux-gnu"

%struct.IndexScanDescData = type { ptr, ptr, ptr, i32, i32, ptr, ptr, i8, i8, i8, i8, i8, ptr, ptr, ptr, ptr, ptr, %struct.ItemPointerData, i8, ptr, i8, ptr, ptr, i8, ptr }
%struct.ItemPointerData = type { %struct.BlockIdData, i16 }
%struct.BlockIdData = type { i16, i16 }

; Function Attrs: nounwind uwtable
define dso_local void @ginrescan(ptr noundef %0, ptr noundef %1, i32 noundef %2, ptr noundef %3, i32 noundef %4) #0 {
  %6 = alloca ptr, align 8
  %7 = alloca ptr, align 8
  %8 = alloca i32, align 4
  %9 = alloca ptr, align 8
  %10 = alloca i32, align 4
  %11 = alloca ptr, align 8
  store ptr %0, ptr %6, align 8
  store ptr %1, ptr %7, align 8
  store i32 %2, ptr %8, align 4
  store ptr %3, ptr %9, align 8
  store i32 %4, ptr %10, align 4
  call void @llvm.lifetime.start.p0(i64 8, ptr %11) #8
  %12 = load ptr, ptr %6, align 8
  %13 = getelementptr inbounds nuw %struct.IndexScanDescData, ptr %12, i32 0, i32 12
  %14 = load ptr, ptr %13, align 8
  store ptr %14, ptr %11, align 8
  %15 = load ptr, ptr %11, align 8
  call void @ginFreeScanKeys(ptr noundef %15)
  %16 = load ptr, ptr %7, align 8
  %17 = icmp ne ptr %16, null
  br i1 %17, label %18, label %33

18:                                               ; preds = %5
  %19 = load ptr, ptr %6, align 8
  %20 = getelementptr inbounds nuw %struct.IndexScanDescData, ptr %19, i32 0, i32 3
  %21 = load i32, ptr %20, align 8
  %22 = icmp sgt i32 %21, 0
  br i1 %22, label %23, label %33

23:                                               ; preds = %18
  %24 = load ptr, ptr %6, align 8
  %25 = getelementptr inbounds nuw %struct.IndexScanDescData, ptr %24, i32 0, i32 5
  %26 = load ptr, ptr %25, align 8
  %27 = load ptr, ptr %7, align 8
  %28 = load ptr, ptr %6, align 8
  %29 = getelementptr inbounds nuw %struct.IndexScanDescData, ptr %28, i32 0, i32 3
  %30 = load i32, ptr %29, align 8
  %31 = sext i32 %30 to i64
  %32 = mul i64 %31, 72
  call void @llvm.memcpy.p0.p0.i64(ptr align 8 %26, ptr align 8 %27, i64 %32, i1 false)
  br label %33

33:                                               ; preds = %23, %18, %5
  call void @llvm.lifetime.end.p0(i64 8, ptr %11) #8
  ret void
}