; Function Attrs: nounwind uwtable
define dso_local void @ginrescan(ptr noundef readonly captures(none) %0, ptr noundef readonly captures(address_is_null) %1, i32 noundef %2, ptr noundef readnone captures(none) %3, i32 noundef %4) local_unnamed_addr #0 {
  %6 = getelementptr inbounds nuw i8, ptr %0, i64 56
  %7 = load ptr, ptr %6, align 8
  tail call void @ginFreeScanKeys(ptr noundef %7)
  %.not = icmp eq ptr %1, null
  br i1 %.not, label %17, label %8

8:                                                ; preds = %5
  %9 = getelementptr inbounds nuw i8, ptr %0, i64 24
  %10 = load i32, ptr %9, align 8
  %11 = icmp sgt i32 %10, 0
  br i1 %11, label %12, label %17

12:                                               ; preds = %8
  %13 = getelementptr inbounds nuw i8, ptr %0, i64 32
  %14 = load ptr, ptr %13, align 8
  %15 = zext nneg i32 %10 to i64
  %16 = mul nuw nsw i64 %15, 72
  tail call void @llvm.memcpy.p0.p0.i64(ptr align 8 %14, ptr nonnull align 8 %1, i64 %16, i1 false)
  br label %17

17:                                               ; preds = %12, %8, %5
  ret void
}